; Function Attrs: mustprogress nofree norecurse nosync nounwind willreturn memory(none) uwtable
define noundef range(i64 128, 0) i64 @_ZN12duckdb_miniz16mz_compressBoundEm(i64 noundef %0) local_unnamed_addr #7 {
  %2 = mul i64 %0, 110
  %3 = udiv i64 %2, 100
  %4 = add nuw nsw i64 %3, 128
  %5 = udiv i64 %0, 31744
  %6 = mul nuw nsw i64 %5, 5
  %7 = add i64 %0, 133
  %8 = add i64 %7, %6
  %..i = tail call noundef range(i64 128, 0) i64 @llvm.umax.i64(i64 %4, i64 %8)
  ret i64 %..i
}